(lp1
(S'2015-11-14 09:05:00'
S'2015-11-16 09:05:00'
tp2
a(S'2015-01-22 01:20:00'
S'2015-01-24 01:20:00'
tp3
a(S'2014-11-24 06:05:00'
S'2014-11-26 06:05:00'
tp4
a(S'2015-08-19 00:00:00'
S'2015-08-21 00:00:00'
tp5
a(S'2014-04-06 11:40:00'
S'2014-04-08 11:40:00'
tp6
a(S'2014-07-07 09:25:00'
S'2014-07-09 09:25:00'
tp7
a(S'2014-03-09 00:40:00'
S'2014-03-11 00:40:00'
tp8
a(S'2015-03-05 20:55:00'
S'2015-03-07 20:55:00'
tp9
a(S'2015-08-15 04:55:00'
S'2015-08-17 04:55:00'
tp10
a(S'2014-02-11 01:50:00'
S'2014-02-13 01:50:00'
tp11
a.