(lp1
(S'2014-02-08 07:50:00'
S'2014-02-10 07:50:00'
tp2
a(S'2014-09-01 05:55:00'
S'2014-09-03 05:55:00'
tp3
a(S'2015-07-22 14:05:00'
S'2015-07-24 14:05:00'
tp4
a(S'2013-10-18 03:45:00'
S'2013-10-20 03:45:00'
tp5
a(S'2013-09-03 02:25:00'
S'2013-09-05 02:25:00'
tp6
a.