(lp1
(S'2014-06-17 05:35:00'
S'2014-06-19 05:35:00'
tp2
a(S'2013-05-04 19:10:00'
S'2013-05-06 19:10:00'
tp3
a(S'2016-01-21 13:45:00'
S'2016-01-23 13:45:00'
tp4
a(S'2013-12-15 15:00:00'
S'2013-12-17 15:00:00'
tp5
a(S'2014-09-30 19:30:00'
S'2014-10-02 19:30:00'
tp6
a.