(lp1
(S'2015-01-11 20:30:00'
S'2015-01-13 20:30:00'
tp2
a(S'2014-01-26 18:10:00'
S'2014-01-28 18:10:00'
tp3
a(S'2014-01-29 05:25:00'
S'2014-01-31 05:25:00'
tp4
a(S'2014-08-07 06:35:00'
S'2014-08-09 06:35:00'
tp5
a(S'2014-03-27 03:35:00'
S'2014-03-29 03:35:00'
tp6
a.