(lp1
(S'2014-02-08 10:50:00'
S'2014-02-10 10:50:00'
tp2
a(S'2014-06-23 21:50:00'
S'2014-06-25 21:50:00'
tp3
a(S'2013-10-18 05:20:00'
S'2013-10-20 05:20:00'
tp4
a(S'2014-06-15 00:35:00'
S'2014-06-17 00:35:00'
tp5
a(S'2015-05-03 10:50:00'
S'2015-05-05 10:50:00'
tp6
a.