(lp1
(S'2013-09-04 09:50:00'
S'2013-09-06 09:50:00'
tp2
a(S'2014-06-22 15:50:00'
S'2014-06-24 15:50:00'
tp3
a(S'2014-09-23 12:40:00'
S'2014-09-25 12:40:00'
tp4
a(S'2015-05-18 11:45:00'
S'2015-05-20 11:45:00'
tp5
a(S'2013-12-09 04:00:00'
S'2013-12-11 04:00:00'
tp6
a(S'2014-07-09 09:45:00'
S'2014-07-11 09:45:00'
tp7
a(S'2015-12-09 12:45:00'
S'2015-12-11 12:45:00'
tp8
a(S'2015-12-15 02:00:00'
S'2015-12-17 02:00:00'
tp9
a(S'2013-10-16 16:45:00'
S'2013-10-18 16:45:00'
tp10
a(S'2014-01-12 07:25:00'
S'2014-01-14 07:25:00'
tp11
a.